; Function Attrs: mustprogress uwtable
define hidden void @_ZN11mpf_manager3negER3mpf(ptr noundef nonnull align 8 dereferenceable(840) %this, ptr nocapture noundef nonnull align 8 dereferenceable(32) %o) local_unnamed_addr #5 align 2 {
entry:
  %exponent.i.i.i = getelementptr inbounds i8, ptr %o, i64 24
  %0 = load i64, ptr %exponent.i.i.i, align 8
  %bf.load.i.i = load i32, ptr %o, align 8
  %bf.clear.i.i = and i32 %bf.load.i.i, 32767
  %m_mpz_manager.i.i.i = getelementptr inbounds i8, ptr %this, i64 728
  %1 = load ptr, ptr %m_mpz_manager.i.i.i, align 8
  %m_powers2.i.i.i = getelementptr inbounds i8, ptr %this, i64 736
  %sub.i.i.i = add nsw i32 %bf.clear.i.i, -1
  %call.i.i.i = tail call noundef nonnull align 8 dereferenceable(16) ptr @_ZN11mpf_manager7powers2clEjb(ptr noundef nonnull align 8 dereferenceable(104) %m_powers2.i.i.i, i32 noundef %sub.i.i.i, i1 noundef zeroext false)
  %call2.i.i.i = tail call noundef i64 @_ZNK11mpz_managerILb0EE9get_int64ERK3mpz(ptr noundef nonnull align 8 dereferenceable(600) %1, ptr noundef nonnull align 8 dereferenceable(16) %call.i.i.i)
  %cmp.i.i = icmp eq i64 %0, %call2.i.i.i
  %significand.i.i = getelementptr inbounds i8, ptr %o, i64 8
  %2 = load i32, ptr %significand.i.i, align 8
  %cmp.i2.i = icmp ne i32 %2, 0
  %3 = select i1 %cmp.i.i, i1 %cmp.i2.i, i1 false
  br i1 %3, label %if.end, label %if.then

if.then:                                          ; preds = %entry
  %bf.load = load i32, ptr %o, align 8
  %bf.set = xor i32 %bf.load, -2147483648
  store i32 %bf.set, ptr %o, align 8
  br label %if.end

if.end:                                           ; preds = %if.then, %entry
  ret void
}